target datalayout = "e-m:e-p270:32:32-p271:32:32-p272:64:64-i64:64-i128:128-f80:128-n8:16:32:64-S128"
target triple = "x86_64-pc-linux-gnu"

%struct.stat = type { i64, i64, i64, i32, i32, i32, i32, i64, i64, i64, i64, %struct.timespec, %struct.timespec, %struct.timespec, [3 x i64] }
%struct.timespec = type { i64, i64 }

; Function Attrs: mustprogress nounwind uwtable
define noundef zeroext i1 @_ZN32pxrInternal_v0_24__pxrReserved__18ArchStatIsWritableEPK4stat(ptr noundef %0) #2 {
  %2 = alloca i1, align 1
  %3 = alloca ptr, align 8
  store ptr %0, ptr %3, align 8
  %4 = load ptr, ptr %3, align 8
  %5 = icmp ne ptr %4, null
  br i1 %5, label %6, label %40

6:                                                ; preds = %1
  %7 = load ptr, ptr %3, align 8
  %8 = getelementptr inbounds nuw %struct.stat, ptr %7, i32 0, i32 3
  %9 = load i32, ptr %8, align 8
  %10 = and i32 %9, 2
  %11 = icmp ne i32 %10, 0
  br i1 %11, label %38, label %12

12:                                               ; preds = %6
  %13 = call i32 @getegid() #6
  %14 = load ptr, ptr %3, align 8
  %15 = getelementptr inbounds nuw %struct.stat, ptr %14, i32 0, i32 5
  %16 = load i32, ptr %15, align 8
  %17 = icmp eq i32 %13, %16
  br i1 %17, label %18, label %24

18:                                               ; preds = %12
  %19 = load ptr, ptr %3, align 8
  %20 = getelementptr inbounds nuw %struct.stat, ptr %19, i32 0, i32 3
  %21 = load i32, ptr %20, align 8
  %22 = and i32 %21, 16
  %23 = icmp ne i32 %22, 0
  br i1 %23, label %38, label %24

24:                                               ; preds = %18, %12
  %25 = call i32 @geteuid() #6
  %26 = load ptr, ptr %3, align 8
  %27 = getelementptr inbounds nuw %struct.stat, ptr %26, i32 0, i32 4
  %28 = load i32, ptr %27, align 4
  %29 = icmp eq i32 %25, %28
  br i1 %29, label %30, label %36

30:                                               ; preds = %24
  %31 = load ptr, ptr %3, align 8
  %32 = getelementptr inbounds nuw %struct.stat, ptr %31, i32 0, i32 3
  %33 = load i32, ptr %32, align 8
  %34 = and i32 %33, 128
  %35 = icmp ne i32 %34, 0
  br label %36

36:                                               ; preds = %30, %24
  %37 = phi i1 [ false, %24 ], [ %35, %30 ]
  br label %38

38:                                               ; preds = %36, %18, %6
  %39 = phi i1 [ true, %18 ], [ true, %6 ], [ %37, %36 ]
  store i1 %39, ptr %2, align 1
  br label %41

40:                                               ; preds = %1
  store i1 false, ptr %2, align 1
  br label %41

41:                                               ; preds = %40, %38
  %42 = load i1, ptr %2, align 1
  ret i1 %42
}