; Function Attrs: mustprogress nounwind uwtable
define noundef zeroext i1 @_ZN32pxrInternal_v0_24__pxrReserved__18ArchStatIsWritableEPK4stat(ptr noundef readonly %0) local_unnamed_addr #2 {
  %.not = icmp eq ptr %0, null
  br i1 %.not, label %23, label %2

2:                                                ; preds = %1
  %3 = getelementptr inbounds nuw i8, ptr %0, i64 24
  %4 = load i32, ptr %3, align 8
  %5 = and i32 %4, 2
  %.not8 = icmp eq i32 %5, 0
  br i1 %.not8, label %6, label %23

6:                                                ; preds = %2
  %7 = tail call i32 @getegid() #23
  %8 = getelementptr inbounds nuw i8, ptr %0, i64 32
  %9 = load i32, ptr %8, align 8
  %10 = icmp eq i32 %7, %9
  br i1 %10, label %11, label %14

11:                                               ; preds = %6
  %12 = load i32, ptr %3, align 8
  %13 = and i32 %12, 16
  %.not9 = icmp eq i32 %13, 0
  br i1 %.not9, label %14, label %23

14:                                               ; preds = %11, %6
  %15 = tail call i32 @geteuid() #23
  %16 = getelementptr inbounds nuw i8, ptr %0, i64 28
  %17 = load i32, ptr %16, align 4
  %18 = icmp eq i32 %15, %17
  br i1 %18, label %19, label %23

19:                                               ; preds = %14
  %20 = load i32, ptr %3, align 8
  %21 = and i32 %20, 128
  %22 = icmp ne i32 %21, 0
  br label %23

23:                                               ; preds = %1, %2, %11, %19, %14
  %.0 = phi i1 [ true, %11 ], [ true, %2 ], [ false, %14 ], [ %22, %19 ], [ false, %1 ]
  ret i1 %.0
}